target datalayout = "e-m:e-p270:32:32-p271:32:32-p272:64:64-i64:64-i128:128-f80:128-n8:16:32:64-S128"
target triple = "x86_64-pc-linux-gnu"

; Function Attrs: null_pointer_is_valid sspstrong uwtable
define internal ptr @name_in_bitmap(ptr noundef %0, ptr noundef %1, i32 noundef %2, i16 noundef zeroext %3, i32 noundef %4) #1 {
  %6 = alloca ptr, align 8
  %7 = alloca ptr, align 8
  %8 = alloca ptr, align 8
  %9 = alloca i32, align 4
  %10 = alloca i16, align 2
  %11 = alloca i32, align 4
  %12 = alloca ptr, align 8
  %13 = alloca i32, align 4
  %14 = alloca i16, align 2
  %15 = alloca i8, align 1
  %16 = alloca i16, align 2
  %17 = alloca i32, align 4
  %18 = alloca i32, align 4
  store ptr %0, ptr %7, align 8
  store ptr %1, ptr %8, align 8
  store i32 %2, ptr %9, align 4
  store i16 %3, ptr %10, align 2
  store i32 %4, ptr %11, align 4
  call void @llvm.lifetime.start.p0(i64 8, ptr %12) #8
  call void @llvm.lifetime.start.p0(i64 4, ptr %13) #8
  %19 = load i32, ptr %9, align 4
  store i32 %19, ptr %13, align 4
  call void @llvm.lifetime.start.p0(i64 2, ptr %14) #8
  call void @llvm.lifetime.start.p0(i64 1, ptr %15) #8
  call void @llvm.lifetime.start.p0(i64 2, ptr %16) #8
  call void @llvm.lifetime.start.p0(i64 4, ptr %17) #8
  %20 = load i16, ptr %10, align 2
  %21 = zext i16 %20 to i32
  %22 = and i32 %21, 1
  %23 = icmp ne i32 %22, 0
  br i1 %23, label %24, label %27

24:                                               ; preds = %5
  %25 = load i32, ptr %9, align 4
  %26 = add i32 %25, 2
  store i32 %26, ptr %9, align 4
  br label %27

27:                                               ; preds = %24, %5
  %28 = load i16, ptr %10, align 2
  %29 = zext i16 %28 to i32
  %30 = and i32 %29, 2
  %31 = icmp ne i32 %30, 0
  br i1 %31, label %32, label %35

32:                                               ; preds = %27
  %33 = load i32, ptr %9, align 4
  %34 = add i32 %33, 4
  store i32 %34, ptr %9, align 4
  br label %35

35:                                               ; preds = %32, %27
  %36 = load i16, ptr %10, align 2
  %37 = zext i16 %36 to i32
  %38 = and i32 %37, 4
  %39 = icmp ne i32 %38, 0
  br i1 %39, label %40, label %43

40:                                               ; preds = %35
  %41 = load i32, ptr %9, align 4
  %42 = add i32 %41, 4
  store i32 %42, ptr %9, align 4
  br label %43

43:                                               ; preds = %40, %35
  %44 = load i16, ptr %10, align 2
  %45 = zext i16 %44 to i32
  %46 = and i32 %45, 8
  %47 = icmp ne i32 %46, 0
  br i1 %47, label %48, label %51

48:                                               ; preds = %43
  %49 = load i32, ptr %9, align 4
  %50 = add i32 %49, 4
  store i32 %50, ptr %9, align 4
  br label %51

51:                                               ; preds = %48, %43
  %52 = load i16, ptr %10, align 2
  %53 = zext i16 %52 to i32
  %54 = and i32 %53, 16
  %55 = icmp ne i32 %54, 0
  br i1 %55, label %56, label %59

56:                                               ; preds = %51
  %57 = load i32, ptr %9, align 4
  %58 = add i32 %57, 4
  store i32 %58, ptr %9, align 4
  br label %59

59:                                               ; preds = %56, %51
  %60 = load i16, ptr %10, align 2
  %61 = zext i16 %60 to i32
  %62 = and i32 %61, 32
  %63 = icmp ne i32 %62, 0
  br i1 %63, label %64, label %67

64:                                               ; preds = %59
  %65 = load i32, ptr %9, align 4
  %66 = add i32 %65, 32
  store i32 %66, ptr %9, align 4
  br label %67

67:                                               ; preds = %64, %59
  %68 = load i16, ptr %10, align 2
  %69 = zext i16 %68 to i32
  %70 = and i32 %69, 64
  %71 = icmp ne i32 %70, 0
  br i1 %71, label %72, label %98

72:                                               ; preds = %67
  %73 = load ptr, ptr %8, align 8
  %74 = load i32, ptr %9, align 4
  %75 = call zeroext i16 @tvb_get_ntohs(ptr noundef %73, i32 noundef %74)
  store i16 %75, ptr %14, align 2
  %76 = load i16, ptr %14, align 2
  %77 = icmp ne i16 %76, 0
  br i1 %77, label %78, label %95

78:                                               ; preds = %72
  %79 = load i16, ptr %14, align 2
  %80 = zext i16 %79 to i32
  %81 = load i32, ptr %13, align 4
  %82 = add i32 %80, %81
  store i32 %82, ptr %17, align 4
  %83 = load ptr, ptr %8, align 8
  %84 = load i32, ptr %17, align 4
  %85 = call zeroext i8 @tvb_get_uint8(ptr noundef %83, i32 noundef %84)
  store i8 %85, ptr %15, align 1
  %86 = load i32, ptr %17, align 4
  %87 = add i32 %86, 1
  store i32 %87, ptr %17, align 4
  %88 = load ptr, ptr %7, align 8
  %89 = load ptr, ptr %8, align 8
  %90 = load i32, ptr %17, align 4
  %91 = load i8, ptr %15, align 1
  %92 = zext i8 %91 to i32
  %93 = call ptr @tvb_get_string_enc(ptr noundef %88, ptr noundef %89, i32 noundef %90, i32 noundef %92, i32 noundef 0)
  store ptr %93, ptr %12, align 8
  %94 = load ptr, ptr %12, align 8
  store ptr %94, ptr %6, align 8
  store i32 1, ptr %18, align 4
  br label %214

95:                                               ; preds = %72
  %96 = load i32, ptr %9, align 4
  %97 = add i32 %96, 2
  store i32 %97, ptr %9, align 4
  br label %98

98:                                               ; preds = %95, %67
  %99 = load i16, ptr %10, align 2
  %100 = zext i16 %99 to i32
  %101 = and i32 %100, 128
  %102 = icmp ne i32 %101, 0
  br i1 %102, label %103, label %106

103:                                              ; preds = %98
  %104 = load i32, ptr %9, align 4
  %105 = add i32 %104, 2
  store i32 %105, ptr %9, align 4
  br label %106

106:                                              ; preds = %103, %98
  %107 = load i16, ptr %10, align 2
  %108 = zext i16 %107 to i32
  %109 = and i32 %108, 256
  %110 = icmp ne i32 %109, 0
  br i1 %110, label %111, label %114

111:                                              ; preds = %106
  %112 = load i32, ptr %9, align 4
  %113 = add i32 %112, 4
  store i32 %113, ptr %9, align 4
  br label %114

114:                                              ; preds = %111, %106
  %115 = load i32, ptr %11, align 4
  %116 = icmp ne i32 %115, 0
  br i1 %116, label %117, label %150

117:                                              ; preds = %114
  %118 = load i16, ptr %10, align 2
  %119 = zext i16 %118 to i32
  %120 = and i32 %119, 512
  %121 = icmp ne i32 %120, 0
  br i1 %121, label %122, label %125

122:                                              ; preds = %117
  %123 = load i32, ptr %9, align 4
  %124 = add i32 %123, 2
  store i32 %124, ptr %9, align 4
  br label %125

125:                                              ; preds = %122, %117
  %126 = load i16, ptr %10, align 2
  %127 = zext i16 %126 to i32
  %128 = and i32 %127, 1024
  %129 = icmp ne i32 %128, 0
  br i1 %129, label %130, label %133

130:                                              ; preds = %125
  %131 = load i32, ptr %9, align 4
  %132 = add i32 %131, 4
  store i32 %132, ptr %9, align 4
  br label %133

133:                                              ; preds = %130, %125
  %134 = load i16, ptr %10, align 2
  %135 = zext i16 %134 to i32
  %136 = and i32 %135, 2048
  %137 = icmp ne i32 %136, 0
  br i1 %137, label %138, label %141

138:                                              ; preds = %133
  %139 = load i32, ptr %9, align 4
  %140 = add i32 %139, 4
  store i32 %140, ptr %9, align 4
  br label %141

141:                                              ; preds = %138, %133
  %142 = load i16, ptr %10, align 2
  %143 = zext i16 %142 to i32
  %144 = and i32 %143, 4096
  %145 = icmp ne i32 %144, 0
  br i1 %145, label %146, label %149

146:                                              ; preds = %141
  %147 = load i32, ptr %9, align 4
  %148 = add i32 %147, 4
  store i32 %148, ptr %9, align 4
  br label %149

149:                                              ; preds = %146, %141
  br label %183

150:                                              ; preds = %114
  %151 = load i16, ptr %10, align 2
  %152 = zext i16 %151 to i32
  %153 = and i32 %152, 512
  %154 = icmp ne i32 %153, 0
  br i1 %154, label %155, label %158

155:                                              ; preds = %150
  %156 = load i32, ptr %9, align 4
  %157 = add i32 %156, 4
  store i32 %157, ptr %9, align 4
  br label %158

158:                                              ; preds = %155, %150
  %159 = load i16, ptr %10, align 2
  %160 = zext i16 %159 to i32
  %161 = and i32 %160, 1024
  %162 = icmp ne i32 %161, 0
  br i1 %162, label %163, label %166

163:                                              ; preds = %158
  %164 = load i32, ptr %9, align 4
  %165 = add i32 %164, 4
  store i32 %165, ptr %9, align 4
  br label %166

166:                                              ; preds = %163, %158
  %167 = load i16, ptr %10, align 2
  %168 = zext i16 %167 to i32
  %169 = and i32 %168, 2048
  %170 = icmp ne i32 %169, 0
  br i1 %170, label %171, label %174

171:                                              ; preds = %166
  %172 = load i32, ptr %9, align 4
  %173 = add i32 %172, 8
  store i32 %173, ptr %9, align 4
  br label %174

174:                                              ; preds = %171, %166
  %175 = load i16, ptr %10, align 2
  %176 = zext i16 %175 to i32
  %177 = and i32 %176, 4096
  %178 = icmp ne i32 %177, 0
  br i1 %178, label %179, label %182

179:                                              ; preds = %174
  %180 = load i32, ptr %9, align 4
  %181 = add i32 %180, 2
  store i32 %181, ptr %9, align 4
  br label %182

182:                                              ; preds = %179, %174
  br label %183

183:                                              ; preds = %182, %149
  %184 = load i16, ptr %10, align 2
  %185 = zext i16 %184 to i32
  %186 = and i32 %185, 8192
  %187 = icmp ne i32 %186, 0
  br i1 %187, label %188, label %213

188:                                              ; preds = %183
  %189 = load ptr, ptr %8, align 8
  %190 = load i32, ptr %9, align 4
  %191 = call zeroext i16 @tvb_get_ntohs(ptr noundef %189, i32 noundef %190)
  store i16 %191, ptr %14, align 2
  %192 = load i16, ptr %14, align 2
  %193 = icmp ne i16 %192, 0
  br i1 %193, label %194, label %212

194:                                              ; preds = %188
  %195 = load i16, ptr %14, align 2
  %196 = zext i16 %195 to i32
  %197 = load i32, ptr %13, align 4
  %198 = add i32 %196, %197
  %199 = add i32 %198, 4
  store i32 %199, ptr %17, align 4
  %200 = load ptr, ptr %8, align 8
  %201 = load i32, ptr %17, align 4
  %202 = call zeroext i16 @tvb_get_ntohs(ptr noundef %200, i32 noundef %201)
  store i16 %202, ptr %16, align 2
  %203 = load i32, ptr %17, align 4
  %204 = add i32 %203, 2
  store i32 %204, ptr %17, align 4
  %205 = load ptr, ptr %7, align 8
  %206 = load ptr, ptr %8, align 8
  %207 = load i32, ptr %17, align 4
  %208 = load i16, ptr %16, align 2
  %209 = zext i16 %208 to i32
  %210 = call ptr @tvb_get_string_enc(ptr noundef %205, ptr noundef %206, i32 noundef %207, i32 noundef %209, i32 noundef 2)
  store ptr %210, ptr %12, align 8
  %211 = load ptr, ptr %12, align 8
  store ptr %211, ptr %6, align 8
  store i32 1, ptr %18, align 4
  br label %214

212:                                              ; preds = %188
  br label %213

213:                                              ; preds = %212, %183
  store ptr null, ptr %6, align 8
  store i32 1, ptr %18, align 4
  br label %214

214:                                              ; preds = %213, %194, %78
  call void @llvm.lifetime.end.p0(i64 4, ptr %17) #8
  call void @llvm.lifetime.end.p0(i64 2, ptr %16) #8
  call void @llvm.lifetime.end.p0(i64 1, ptr %15) #8
  call void @llvm.lifetime.end.p0(i64 2, ptr %14) #8
  call void @llvm.lifetime.end.p0(i64 4, ptr %13) #8
  call void @llvm.lifetime.end.p0(i64 8, ptr %12) #8
  %215 = load ptr, ptr %6, align 8
  ret ptr %215
}