; Function Attrs: null_pointer_is_valid sspstrong uwtable
define internal fastcc ptr @name_in_bitmap(ptr noundef %0, ptr noundef %1, i32 noundef %2, i16 noundef zeroext %3, i32 noundef range(i32 0, 2) %4) unnamed_addr #1 {
  %6 = zext i16 %3 to i32
  %7 = shl nuw nsw i32 %6, 1
  %8 = and i32 %7, 2
  %9 = and i32 %7, 4
  %10 = and i32 %6, 4
  %11 = lshr i32 %6, 1
  %12 = and i32 %11, 4
  %13 = lshr i32 %6, 2
  %14 = and i32 %13, 4
  %15 = and i32 %6, 32
  %spec.select = add i32 %10, %2
  %.1 = add i32 %spec.select, %15
  %.2 = add i32 %.1, %8
  %.3 = add i32 %.2, %9
  %.4 = add i32 %.3, %12
  %.5 = add i32 %.4, %14
  %16 = and i32 %6, 64
  %.not71 = icmp eq i32 %16, 0
  br i1 %.not71, label %28, label %17

17:                                               ; preds = %5
  %18 = tail call zeroext i16 @tvb_get_ntohs(ptr noundef %1, i32 noundef %.5)
  %.not72 = icmp eq i16 %18, 0
  br i1 %.not72, label %26, label %19

19:                                               ; preds = %17
  %20 = zext i16 %18 to i32
  %21 = add i32 %2, %20
  %22 = tail call zeroext i8 @tvb_get_uint8(ptr noundef %1, i32 noundef %21)
  %23 = add i32 %21, 1
  %24 = zext i8 %22 to i32
  %25 = tail call ptr @tvb_get_string_enc(ptr noundef %0, ptr noundef %1, i32 noundef %23, i32 noundef %24, i32 noundef 0)
  br label %56

26:                                               ; preds = %17
  %27 = add i32 %.5, 2
  br label %28

28:                                               ; preds = %26, %5
  %.6 = phi i32 [ %27, %26 ], [ %.5, %5 ]
  %29 = lshr i32 %6, 6
  %spec.select86 = and i32 %29, 6
  %.8 = add i32 %spec.select86, %.6
  %.not75 = icmp eq i32 %4, 0
  br i1 %.not75, label %36, label %30

30:                                               ; preds = %28
  %31 = lshr i32 %6, 8
  %32 = lshr i32 %6, 9
  %33 = and i32 %32, 4
  %34 = lshr i32 %6, 10
  %35 = and i32 %34, 4
  %spec.select87 = and i32 %31, 6
  %.10 = add nuw nsw i32 %spec.select87, %33
  %.11 = add nuw nsw i32 %.10, %35
  br label %44

36:                                               ; preds = %28
  %37 = lshr i32 %6, 7
  %38 = and i32 %37, 4
  %39 = lshr i32 %6, 8
  %40 = and i32 %39, 4
  %41 = and i32 %39, 8
  %42 = lshr i32 %6, 11
  %43 = and i32 %42, 2
  %spec.select88 = add nuw nsw i32 %40, %38
  %.14 = add nuw nsw i32 %spec.select88, %41
  %.15 = or disjoint i32 %.14, %43
  br label %44

44:                                               ; preds = %36, %30
  %.11.pn = phi i32 [ %.11, %30 ], [ %.15, %36 ]
  %45 = and i32 %6, 8192
  %.not84 = icmp eq i32 %45, 0
  br i1 %.not84, label %56, label %46

46:                                               ; preds = %44
  %.12 = add i32 %.11.pn, %.8
  %47 = tail call zeroext i16 @tvb_get_ntohs(ptr noundef %1, i32 noundef %.12)
  %.not85 = icmp eq i16 %47, 0
  br i1 %.not85, label %56, label %48

48:                                               ; preds = %46
  %49 = zext i16 %47 to i32
  %50 = add i32 %2, %49
  %51 = add i32 %50, 4
  %52 = tail call zeroext i16 @tvb_get_ntohs(ptr noundef %1, i32 noundef %51)
  %53 = add i32 %50, 6
  %54 = zext i16 %52 to i32
  %55 = tail call ptr @tvb_get_string_enc(ptr noundef %0, ptr noundef %1, i32 noundef %53, i32 noundef %54, i32 noundef 2)
  br label %56

56:                                               ; preds = %44, %46, %48, %19
  %.0 = phi ptr [ %25, %19 ], [ %55, %48 ], [ null, %46 ], [ null, %44 ]
  ret ptr %.0
}